target datalayout = "e-m:e-p270:32:32-p271:32:32-p272:64:64-i64:64-i128:128-f80:128-n8:16:32:64-S128"
target triple = "x86_64-pc-linux-gnu"

; Function Attrs: nounwind uwtable
define dso_local ptr @jvp_utf8_backtrack(ptr noundef %0, ptr noundef %1, ptr noundef %2) #0 {
  %4 = alloca ptr, align 8
  %5 = alloca ptr, align 8
  %6 = alloca ptr, align 8
  %7 = alloca ptr, align 8
  %8 = alloca i32, align 4
  %9 = alloca i32, align 4
  %10 = alloca i32, align 4
  store ptr %0, ptr %5, align 8, !tbaa !4
  store ptr %1, ptr %6, align 8, !tbaa !4
  store ptr %2, ptr %7, align 8, !tbaa !9
  %11 = load ptr, ptr %6, align 8, !tbaa !4
  %12 = load ptr, ptr %5, align 8, !tbaa !4
  %13 = icmp eq ptr %11, %12
  br i1 %13, label %14, label %16

14:                                               ; preds = %3
  %15 = load ptr, ptr %6, align 8, !tbaa !4
  store ptr %15, ptr %4, align 8
  br label %59

16:                                               ; preds = %3
  call void @llvm.lifetime.start.p0(i64 4, ptr %8) #2
  store i32 0, ptr %8, align 4, !tbaa !11
  call void @llvm.lifetime.start.p0(i64 4, ptr %9) #2
  store i32 1, ptr %9, align 4, !tbaa !11
  br label %17

17:                                               ; preds = %31, %16
  %18 = load ptr, ptr %5, align 8, !tbaa !4
  %19 = load ptr, ptr %6, align 8, !tbaa !4
  %20 = icmp uge ptr %18, %19
  br i1 %20, label %21, label %29

21:                                               ; preds = %17
  %22 = load ptr, ptr %5, align 8, !tbaa !4
  %23 = load i8, ptr %22, align 1, !tbaa !13
  %24 = zext i8 %23 to i64
  %25 = getelementptr inbounds nuw [256 x i8], ptr @utf8_coding_length, i64 0, i64 %24
  %26 = load i8, ptr %25, align 1, !tbaa !13
  %27 = zext i8 %26 to i32
  store i32 %27, ptr %8, align 4, !tbaa !11
  %28 = icmp eq i32 %27, 255
  br label %29

29:                                               ; preds = %21, %17
  %30 = phi i1 [ false, %17 ], [ %28, %21 ]
  br i1 %30, label %31, label %36

31:                                               ; preds = %29
  %32 = load ptr, ptr %5, align 8, !tbaa !4
  %33 = getelementptr inbounds i8, ptr %32, i32 -1
  store ptr %33, ptr %5, align 8, !tbaa !4
  %34 = load i32, ptr %9, align 4, !tbaa !11
  %35 = add nsw i32 %34, 1
  store i32 %35, ptr %9, align 4, !tbaa !11
  br label %17, !llvm.loop !14

36:                                               ; preds = %29
  %37 = load i32, ptr %8, align 4, !tbaa !11
  %38 = icmp eq i32 %37, 0
  br i1 %38, label %47, label %39

39:                                               ; preds = %36
  %40 = load i32, ptr %8, align 4, !tbaa !11
  %41 = icmp eq i32 %40, 255
  br i1 %41, label %47, label %42

42:                                               ; preds = %39
  %43 = load i32, ptr %8, align 4, !tbaa !11
  %44 = load i32, ptr %9, align 4, !tbaa !11
  %45 = sub nsw i32 %43, %44
  %46 = icmp slt i32 %45, 0
  br i1 %46, label %47, label %48

47:                                               ; preds = %42, %39, %36
  store ptr null, ptr %4, align 8
  store i32 1, ptr %10, align 4
  br label %58

48:                                               ; preds = %42
  %49 = load ptr, ptr %7, align 8, !tbaa !9
  %50 = icmp ne ptr %49, null
  br i1 %50, label %51, label %56

51:                                               ; preds = %48
  %52 = load i32, ptr %8, align 4, !tbaa !11
  %53 = load i32, ptr %9, align 4, !tbaa !11
  %54 = sub nsw i32 %52, %53
  %55 = load ptr, ptr %7, align 8, !tbaa !9
  store i32 %54, ptr %55, align 4, !tbaa !11
  br label %56

56:                                               ; preds = %51, %48
  %57 = load ptr, ptr %5, align 8, !tbaa !4
  store ptr %57, ptr %4, align 8
  store i32 1, ptr %10, align 4
  br label %58

58:                                               ; preds = %56, %47
  call void @llvm.lifetime.end.p0(i64 4, ptr %9) #2
  call void @llvm.lifetime.end.p0(i64 4, ptr %8) #2
  br label %59

59:                                               ; preds = %58, %14
  %60 = load ptr, ptr %4, align 8
  ret ptr %60
}