; Function Attrs: nofree norecurse nosync nounwind memory(argmem: readwrite) uwtable
define dso_local noundef ptr @jvp_utf8_backtrack(ptr noundef readonly captures(address, ret: address, provenance) %0, ptr noundef readnone captures(address, ret: address, provenance) %1, ptr noundef writeonly captures(address_is_null) %2) local_unnamed_addr #0 {
  %4 = icmp eq ptr %1, %0
  br i1 %4, label %.critedge.thread, label %.preheader

.preheader:                                       ; preds = %3
  %.not34 = icmp ult ptr %0, %1
  br i1 %.not34, label %.critedge.thread, label %.lr.ph

.lr.ph:                                           ; preds = %.preheader, %9
  %.036 = phi i32 [ %11, %9 ], [ 1, %.preheader ]
  %.02135 = phi ptr [ %10, %9 ], [ %0, %.preheader ]
  %5 = load i8, ptr %.02135, align 1, !tbaa !4
  %6 = zext i8 %5 to i64
  %7 = getelementptr inbounds nuw [256 x i8], ptr @utf8_coding_length, i64 0, i64 %6
  %8 = load i8, ptr %7, align 1, !tbaa !4
  switch i8 %8, label %12 [
    i8 -1, label %9
    i8 0, label %.critedge.thread
  ]

9:                                                ; preds = %.lr.ph
  %10 = getelementptr inbounds i8, ptr %.02135, i64 -1
  %11 = add nuw nsw i32 %.036, 1
  %.not = icmp ult ptr %10, %1
  br i1 %.not, label %.critedge.thread, label %.lr.ph, !llvm.loop !7

12:                                               ; preds = %.lr.ph
  %13 = zext i8 %8 to i32
  %14 = sub nsw i32 %13, %.036
  %15 = icmp slt i32 %14, 0
  br i1 %15, label %.critedge.thread, label %16

16:                                               ; preds = %12
  %.not29 = icmp eq ptr %2, null
  br i1 %.not29, label %.critedge.thread, label %17

17:                                               ; preds = %16
  store i32 %14, ptr %2, align 4, !tbaa !9
  br label %.critedge.thread

.critedge.thread:                                 ; preds = %9, %.lr.ph, %.preheader, %12, %17, %16, %3
  %.019 = phi ptr [ %1, %3 ], [ null, %12 ], [ %.02135, %17 ], [ %.02135, %16 ], [ null, %.preheader ], [ null, %.lr.ph ], [ null, %9 ]
  ret ptr %.019
}